; Function Attrs: mustprogress nofree norecurse nounwind willreturn memory(readwrite, inaccessiblemem: none) uwtable
define void @_ZN12FunnelAction23getPacketRequiredFieldsEv(ptr dead_on_unwind noalias nocapture writable writeonly sret(%class.QSet) align 8 %0, ptr nocapture noundef nonnull readonly align 8 dereferenceable(112) %1) local_unnamed_addr #6 align 2 personality ptr @__gxx_personality_v0 {
  %3 = getelementptr inbounds i8, ptr %1, i64 104
  %4 = load ptr, ptr %3, align 8
  store ptr %4, ptr %0, align 8
  %.not.i.i = icmp eq ptr %4, null
  br i1 %.not.i.i, label %_ZN4QSetI7QStringEC2ERKS1_.exit, label %5

5:                                                ; preds = %2
  %6 = load atomic i32, ptr %4 monotonic, align 4
  %.not.i.i.i = icmp eq i32 %6, -1
  br i1 %.not.i.i.i, label %_ZN4QSetI7QStringEC2ERKS1_.exit, label %7

7:                                                ; preds = %5
  %8 = atomicrmw add ptr %4, i32 1 seq_cst, align 4
  br label %_ZN4QSetI7QStringEC2ERKS1_.exit

_ZN4QSetI7QStringEC2ERKS1_.exit:                  ; preds = %2, %5, %7
  ret void
}